target datalayout = "e-m:e-p270:32:32-p271:32:32-p272:64:64-i64:64-i128:128-f80:128-n8:16:32:64-S128"
target triple = "x86_64-pc-linux-gnu"

%struct.Dsd_Manager_t_ = type { ptr, ptr, i32, i32, i32, ptr, ptr, ptr, i32 }
%struct.Dsd_Node_t_ = type { i32, ptr, ptr, ptr, i64, i16, i16 }
%struct.DdNode = type { i32, i32, ptr, %union.anon, i64 }
%union.anon = type { %struct.DdChildren }
%struct.DdChildren = type { ptr, ptr }
%struct.DdManager = type { %struct.DdNode, ptr, ptr, ptr, ptr, ptr, ptr, ptr, i32, i32, double, double, double, i32, i32, i32, i32, i32, i32, ptr, ptr, %struct.DdSubtable, i32, i32, i32, i32, i32, i32, i32, double, i32, i32, i32, ptr, i64, double, i32, ptr, ptr, ptr, ptr, ptr, ptr, ptr, i32, ptr, ptr, ptr, ptr, ptr, ptr, i32, i32, i32, double, i32, i32, i32, i32, double, double, i32, i32, i32, i32, i32, i32, i32, i32, i32, ptr, ptr, i32, i32, i32, i32, i32, i32, ptr, ptr, ptr, ptr, ptr, ptr, ptr, ptr, i32, i64, i64, i64, i32, i64, i64, double, double, double, double, double, double, i32, ptr, ptr, i64 }
%struct.DdSubtable = type { ptr, i32, i32, i32, i32, i32, i32, i32, i32, i32, i32, i32 }

@dsdKernelFindCommonComponents.Common = internal global [1000 x ptr] zeroinitializer, align 16

; Function Attrs: nounwind uwtable
define internal i32 @dsdKernelFindCommonComponents(ptr noundef %0, ptr noundef %1, ptr noundef %2, ptr noundef %3, ptr noundef %4, ptr noundef %5) #0 {
  %7 = alloca ptr, align 8
  %8 = alloca ptr, align 8
  %9 = alloca ptr, align 8
  %10 = alloca ptr, align 8
  %11 = alloca ptr, align 8
  %12 = alloca ptr, align 8
  %13 = alloca i32, align 4
  %14 = alloca ptr, align 8
  %15 = alloca ptr, align 8
  %16 = alloca ptr, align 8
  %17 = alloca ptr, align 8
  %18 = alloca i32, align 4
  %19 = alloca i32, align 4
  %20 = alloca i32, align 4
  store ptr %0, ptr %7, align 8, !tbaa !3
  store ptr %1, ptr %8, align 8, !tbaa !27
  store ptr %2, ptr %9, align 8, !tbaa !27
  store ptr %3, ptr %10, align 8, !tbaa !81
  store ptr %4, ptr %11, align 8, !tbaa !63
  store ptr %5, ptr %12, align 8, !tbaa !63
  call void @llvm.lifetime.start.p0(i64 4, ptr %13) #6
  store i32 0, ptr %13, align 4, !tbaa !10
  call void @llvm.lifetime.start.p0(i64 8, ptr %14) #6
  call void @llvm.lifetime.start.p0(i64 8, ptr %15) #6
  call void @llvm.lifetime.start.p0(i64 8, ptr %16) #6
  call void @llvm.lifetime.start.p0(i64 8, ptr %17) #6
  call void @llvm.lifetime.start.p0(i64 4, ptr %18) #6
  call void @llvm.lifetime.start.p0(i64 4, ptr %19) #6
  store i32 0, ptr %19, align 4, !tbaa !10
  call void @llvm.lifetime.start.p0(i64 4, ptr %20) #6
  store i32 0, ptr %20, align 4, !tbaa !10
  br label %21

21:                                               ; preds = %184, %6
  %22 = load i32, ptr %19, align 4, !tbaa !10
  %23 = load ptr, ptr %8, align 8, !tbaa !27
  %24 = getelementptr inbounds nuw %struct.Dsd_Node_t_, ptr %23, i32 0, i32 5
  %25 = load i16, ptr %24, align 8, !tbaa !31
  %26 = sext i16 %25 to i32
  %27 = icmp slt i32 %22, %26
  br i1 %27, label %28, label %35

28:                                               ; preds = %21
  %29 = load i32, ptr %20, align 4, !tbaa !10
  %30 = load ptr, ptr %9, align 8, !tbaa !27
  %31 = getelementptr inbounds nuw %struct.Dsd_Node_t_, ptr %30, i32 0, i32 5
  %32 = load i16, ptr %31, align 8, !tbaa !31
  %33 = sext i16 %32 to i32
  %34 = icmp slt i32 %29, %33
  br label %35

35:                                               ; preds = %28, %21
  %36 = phi i1 [ false, %21 ], [ %34, %28 ]
  br i1 %36, label %37, label %185

37:                                               ; preds = %35
  %38 = load ptr, ptr %8, align 8, !tbaa !27
  %39 = getelementptr inbounds nuw %struct.Dsd_Node_t_, ptr %38, i32 0, i32 3
  %40 = load ptr, ptr %39, align 8, !tbaa !58
  %41 = load i32, ptr %19, align 4, !tbaa !10
  %42 = sext i32 %41 to i64
  %43 = getelementptr inbounds ptr, ptr %40, i64 %42
  %44 = load ptr, ptr %43, align 8, !tbaa !27
  %45 = ptrtoint ptr %44 to i64
  %46 = and i64 %45, -2
  %47 = inttoptr i64 %46 to ptr
  store ptr %47, ptr %14, align 8, !tbaa !27
  %48 = load ptr, ptr %9, align 8, !tbaa !27
  %49 = getelementptr inbounds nuw %struct.Dsd_Node_t_, ptr %48, i32 0, i32 3
  %50 = load ptr, ptr %49, align 8, !tbaa !58
  %51 = load i32, ptr %20, align 4, !tbaa !10
  %52 = sext i32 %51 to i64
  %53 = getelementptr inbounds ptr, ptr %50, i64 %52
  %54 = load ptr, ptr %53, align 8, !tbaa !27
  %55 = ptrtoint ptr %54 to i64
  %56 = and i64 %55, -2
  %57 = inttoptr i64 %56 to ptr
  store ptr %57, ptr %15, align 8, !tbaa !27
  %58 = load ptr, ptr %14, align 8, !tbaa !27
  %59 = getelementptr inbounds nuw %struct.Dsd_Node_t_, ptr %58, i32 0, i32 2
  %60 = load ptr, ptr %59, align 8, !tbaa !32
  store ptr %60, ptr %16, align 8, !tbaa !25
  %61 = load ptr, ptr %15, align 8, !tbaa !27
  %62 = getelementptr inbounds nuw %struct.Dsd_Node_t_, ptr %61, i32 0, i32 2
  %63 = load ptr, ptr %62, align 8, !tbaa !32
  store ptr %63, ptr %17, align 8, !tbaa !25
  %64 = load ptr, ptr %7, align 8, !tbaa !3
  %65 = getelementptr inbounds nuw %struct.Dsd_Manager_t_, ptr %64, i32 0, i32 0
  %66 = load ptr, ptr %65, align 8, !tbaa !12
  %67 = getelementptr inbounds nuw %struct.DdManager, ptr %66, i32 0, i32 37
  %68 = load ptr, ptr %67, align 8, !tbaa !62
  %69 = load ptr, ptr %16, align 8, !tbaa !25
  %70 = getelementptr inbounds nuw %struct.DdNode, ptr %69, i32 0, i32 0
  %71 = load i32, ptr %70, align 8, !tbaa !43
  %72 = zext i32 %71 to i64
  %73 = getelementptr inbounds nuw i32, ptr %68, i64 %72
  %74 = load i32, ptr %73, align 4, !tbaa !10
  %75 = load ptr, ptr %7, align 8, !tbaa !3
  %76 = getelementptr inbounds nuw %struct.Dsd_Manager_t_, ptr %75, i32 0, i32 0
  %77 = load ptr, ptr %76, align 8, !tbaa !12
  %78 = getelementptr inbounds nuw %struct.DdManager, ptr %77, i32 0, i32 37
  %79 = load ptr, ptr %78, align 8, !tbaa !62
  %80 = load ptr, ptr %17, align 8, !tbaa !25
  %81 = getelementptr inbounds nuw %struct.DdNode, ptr %80, i32 0, i32 0
  %82 = load i32, ptr %81, align 8, !tbaa !43
  %83 = zext i32 %82 to i64
  %84 = getelementptr inbounds nuw i32, ptr %79, i64 %83
  %85 = load i32, ptr %84, align 4, !tbaa !10
  %86 = icmp slt i32 %74, %85
  br i1 %86, label %87, label %91

87:                                               ; preds = %37
  %88 = load ptr, ptr %16, align 8, !tbaa !25
  %89 = getelementptr inbounds nuw %struct.DdNode, ptr %88, i32 0, i32 0
  %90 = load i32, ptr %89, align 8, !tbaa !43
  store i32 %90, ptr %18, align 4, !tbaa !10
  br label %95

91:                                               ; preds = %37
  %92 = load ptr, ptr %17, align 8, !tbaa !25
  %93 = getelementptr inbounds nuw %struct.DdNode, ptr %92, i32 0, i32 0
  %94 = load i32, ptr %93, align 8, !tbaa !43
  store i32 %94, ptr %18, align 4, !tbaa !10
  br label %95

95:                                               ; preds = %91, %87
  %96 = load i32, ptr %18, align 4, !tbaa !10
  %97 = load ptr, ptr %16, align 8, !tbaa !25
  %98 = getelementptr inbounds nuw %struct.DdNode, ptr %97, i32 0, i32 0
  %99 = load i32, ptr %98, align 8, !tbaa !43
  %100 = icmp eq i32 %96, %99
  br i1 %100, label %101, label %157

101:                                              ; preds = %95
  %102 = load i32, ptr %18, align 4, !tbaa !10
  %103 = load ptr, ptr %17, align 8, !tbaa !25
  %104 = getelementptr inbounds nuw %struct.DdNode, ptr %103, i32 0, i32 0
  %105 = load i32, ptr %104, align 8, !tbaa !43
  %106 = icmp eq i32 %102, %105
  br i1 %106, label %107, label %157

107:                                              ; preds = %101
  %108 = load ptr, ptr %8, align 8, !tbaa !27
  %109 = getelementptr inbounds nuw %struct.Dsd_Node_t_, ptr %108, i32 0, i32 3
  %110 = load ptr, ptr %109, align 8, !tbaa !58
  %111 = load i32, ptr %19, align 4, !tbaa !10
  %112 = sext i32 %111 to i64
  %113 = getelementptr inbounds ptr, ptr %110, i64 %112
  %114 = load ptr, ptr %113, align 8, !tbaa !27
  %115 = load ptr, ptr %9, align 8, !tbaa !27
  %116 = getelementptr inbounds nuw %struct.Dsd_Node_t_, ptr %115, i32 0, i32 3
  %117 = load ptr, ptr %116, align 8, !tbaa !58
  %118 = load i32, ptr %20, align 4, !tbaa !10
  %119 = sext i32 %118 to i64
  %120 = getelementptr inbounds ptr, ptr %117, i64 %119
  %121 = load ptr, ptr %120, align 8, !tbaa !27
  %122 = icmp eq ptr %114, %121
  br i1 %122, label %123, label %135

123:                                              ; preds = %107
  %124 = load ptr, ptr %8, align 8, !tbaa !27
  %125 = getelementptr inbounds nuw %struct.Dsd_Node_t_, ptr %124, i32 0, i32 3
  %126 = load ptr, ptr %125, align 8, !tbaa !58
  %127 = load i32, ptr %19, align 4, !tbaa !10
  %128 = sext i32 %127 to i64
  %129 = getelementptr inbounds ptr, ptr %126, i64 %128
  %130 = load ptr, ptr %129, align 8, !tbaa !27
  %131 = load i32, ptr %13, align 4, !tbaa !10
  %132 = add nsw i32 %131, 1
  store i32 %132, ptr %13, align 4, !tbaa !10
  %133 = sext i32 %131 to i64
  %134 = getelementptr inbounds [1000 x ptr], ptr @dsdKernelFindCommonComponents.Common, i64 0, i64 %133
  store ptr %130, ptr %134, align 8, !tbaa !27
  br label %152

135:                                              ; preds = %107
  %136 = load ptr, ptr %8, align 8, !tbaa !27
  %137 = getelementptr inbounds nuw %struct.Dsd_Node_t_, ptr %136, i32 0, i32 3
  %138 = load ptr, ptr %137, align 8, !tbaa !58
  %139 = load i32, ptr %19, align 4, !tbaa !10
  %140 = sext i32 %139 to i64
  %141 = getelementptr inbounds ptr, ptr %138, i64 %140
  %142 = load ptr, ptr %141, align 8, !tbaa !27
  %143 = load ptr, ptr %11, align 8, !tbaa !63
  store ptr %142, ptr %143, align 8, !tbaa !27
  %144 = load ptr, ptr %9, align 8, !tbaa !27
  %145 = getelementptr inbounds nuw %struct.Dsd_Node_t_, ptr %144, i32 0, i32 3
  %146 = load ptr, ptr %145, align 8, !tbaa !58
  %147 = load i32, ptr %20, align 4, !tbaa !10
  %148 = sext i32 %147 to i64
  %149 = getelementptr inbounds ptr, ptr %146, i64 %148
  %150 = load ptr, ptr %149, align 8, !tbaa !27
  %151 = load ptr, ptr %12, align 8, !tbaa !63
  store ptr %150, ptr %151, align 8, !tbaa !27
  br label %152

152:                                              ; preds = %135, %123
  %153 = load i32, ptr %19, align 4, !tbaa !10
  %154 = add nsw i32 %153, 1
  store i32 %154, ptr %19, align 4, !tbaa !10
  %155 = load i32, ptr %20, align 4, !tbaa !10
  %156 = add nsw i32 %155, 1
  store i32 %156, ptr %20, align 4, !tbaa !10
  br label %184

157:                                              ; preds = %101, %95
  %158 = load i32, ptr %18, align 4, !tbaa !10
  %159 = load ptr, ptr %16, align 8, !tbaa !25
  %160 = getelementptr inbounds nuw %struct.DdNode, ptr %159, i32 0, i32 0
  %161 = load i32, ptr %160, align 8, !tbaa !43
  %162 = icmp eq i32 %158, %161
  br i1 %162, label %163, label %173

163:                                              ; preds = %157
  %164 = load ptr, ptr %8, align 8, !tbaa !27
  %165 = getelementptr inbounds nuw %struct.Dsd_Node_t_, ptr %164, i32 0, i32 3
  %166 = load ptr, ptr %165, align 8, !tbaa !58
  %167 = load i32, ptr %19, align 4, !tbaa !10
  %168 = add nsw i32 %167, 1
  store i32 %168, ptr %19, align 4, !tbaa !10
  %169 = sext i32 %167 to i64
  %170 = getelementptr inbounds ptr, ptr %166, i64 %169
  %171 = load ptr, ptr %170, align 8, !tbaa !27
  %172 = load ptr, ptr %11, align 8, !tbaa !63
  store ptr %171, ptr %172, align 8, !tbaa !27
  br label %183

173:                                              ; preds = %157
  %174 = load ptr, ptr %9, align 8, !tbaa !27
  %175 = getelementptr inbounds nuw %struct.Dsd_Node_t_, ptr %174, i32 0, i32 3
  %176 = load ptr, ptr %175, align 8, !tbaa !58
  %177 = load i32, ptr %20, align 4, !tbaa !10
  %178 = add nsw i32 %177, 1
  store i32 %178, ptr %20, align 4, !tbaa !10
  %179 = sext i32 %177 to i64
  %180 = getelementptr inbounds ptr, ptr %176, i64 %179
  %181 = load ptr, ptr %180, align 8, !tbaa !27
  %182 = load ptr, ptr %12, align 8, !tbaa !63
  store ptr %181, ptr %182, align 8, !tbaa !27
  br label %183

183:                                              ; preds = %173, %163
  br label %184

184:                                              ; preds = %183, %152
  br label %21, !llvm.loop !83

185:                                              ; preds = %35
  %186 = load i32, ptr %19, align 4, !tbaa !10
  %187 = load ptr, ptr %8, align 8, !tbaa !27
  %188 = getelementptr inbounds nuw %struct.Dsd_Node_t_, ptr %187, i32 0, i32 5
  %189 = load i16, ptr %188, align 8, !tbaa !31
  %190 = sext i16 %189 to i32
  %191 = icmp slt i32 %186, %190
  br i1 %191, label %192, label %201

192:                                              ; preds = %185
  %193 = load ptr, ptr %8, align 8, !tbaa !27
  %194 = getelementptr inbounds nuw %struct.Dsd_Node_t_, ptr %193, i32 0, i32 3
  %195 = load ptr, ptr %194, align 8, !tbaa !58
  %196 = load i32, ptr %19, align 4, !tbaa !10
  %197 = sext i32 %196 to i64
  %198 = getelementptr inbounds ptr, ptr %195, i64 %197
  %199 = load ptr, ptr %198, align 8, !tbaa !27
  %200 = load ptr, ptr %11, align 8, !tbaa !63
  store ptr %199, ptr %200, align 8, !tbaa !27
  br label %201

201:                                              ; preds = %192, %185
  %202 = load i32, ptr %20, align 4, !tbaa !10
  %203 = load ptr, ptr %9, align 8, !tbaa !27
  %204 = getelementptr inbounds nuw %struct.Dsd_Node_t_, ptr %203, i32 0, i32 5
  %205 = load i16, ptr %204, align 8, !tbaa !31
  %206 = sext i16 %205 to i32
  %207 = icmp slt i32 %202, %206
  br i1 %207, label %208, label %217

208:                                              ; preds = %201
  %209 = load ptr, ptr %9, align 8, !tbaa !27
  %210 = getelementptr inbounds nuw %struct.Dsd_Node_t_, ptr %209, i32 0, i32 3
  %211 = load ptr, ptr %210, align 8, !tbaa !58
  %212 = load i32, ptr %20, align 4, !tbaa !10
  %213 = sext i32 %212 to i64
  %214 = getelementptr inbounds ptr, ptr %211, i64 %213
  %215 = load ptr, ptr %214, align 8, !tbaa !27
  %216 = load ptr, ptr %12, align 8, !tbaa !63
  store ptr %215, ptr %216, align 8, !tbaa !27
  br label %217

217:                                              ; preds = %208, %201
  %218 = load ptr, ptr %10, align 8, !tbaa !81
  store ptr @dsdKernelFindCommonComponents.Common, ptr %218, align 8, !tbaa !63
  %219 = load i32, ptr %13, align 4, !tbaa !10
  call void @llvm.lifetime.end.p0(i64 4, ptr %20) #6
  call void @llvm.lifetime.end.p0(i64 4, ptr %19) #6
  call void @llvm.lifetime.end.p0(i64 4, ptr %18) #6
  call void @llvm.lifetime.end.p0(i64 8, ptr %17) #6
  call void @llvm.lifetime.end.p0(i64 8, ptr %16) #6
  call void @llvm.lifetime.end.p0(i64 8, ptr %15) #6
  call void @llvm.lifetime.end.p0(i64 8, ptr %14) #6
  call void @llvm.lifetime.end.p0(i64 4, ptr %13) #6
  ret i32 %219
}