; Function Attrs: nofree norecurse nosync nounwind memory(readwrite, inaccessiblemem: none) uwtable
define internal fastcc i32 @dsdKernelFindCommonComponents(ptr noundef readonly captures(none) %0, ptr noundef readonly captures(none) %1, ptr noundef readonly captures(none) %2, ptr noundef nonnull writeonly captures(none) %3, ptr noundef nonnull writeonly captures(none) %4, ptr noundef nonnull writeonly captures(none) %5) unnamed_addr #7 {
  %7 = getelementptr inbounds nuw i8, ptr %1, i64 40
  %8 = load i16, ptr %7, align 8, !tbaa !28
  %9 = sext i16 %8 to i32
  %10 = icmp sgt i16 %8, 0
  %11 = getelementptr inbounds nuw i8, ptr %2, i64 40
  %12 = load i16, ptr %11, align 8, !tbaa !28
  %13 = sext i16 %12 to i32
  br i1 %10, label %.lr.ph, label %.critedge

.lr.ph:                                           ; preds = %6
  %14 = getelementptr inbounds nuw i8, ptr %1, i64 24
  %15 = getelementptr inbounds nuw i8, ptr %2, i64 24
  %16 = load ptr, ptr %14, align 8, !tbaa !56
  br label %17

17:                                               ; preds = %.lr.ph, %68
  %.068 = phi i32 [ 0, %.lr.ph ], [ %.1, %68 ]
  %.05467 = phi i32 [ 0, %.lr.ph ], [ %.155, %68 ]
  %.05766 = phi i32 [ 0, %.lr.ph ], [ %.2, %68 ]
  %18 = icmp slt i32 %.068, %13
  %19 = sext i32 %.05467 to i64
  %20 = getelementptr inbounds ptr, ptr %16, i64 %19
  %21 = load ptr, ptr %20, align 8, !tbaa !24
  br i1 %18, label %22, label %70

22:                                               ; preds = %17
  %23 = ptrtoint ptr %21 to i64
  %24 = and i64 %23, -2
  %25 = inttoptr i64 %24 to ptr
  %26 = load ptr, ptr %15, align 8, !tbaa !56
  %27 = sext i32 %.068 to i64
  %28 = getelementptr inbounds ptr, ptr %26, i64 %27
  %29 = load ptr, ptr %28, align 8, !tbaa !24
  %30 = ptrtoint ptr %29 to i64
  %31 = and i64 %30, -2
  %32 = inttoptr i64 %31 to ptr
  %33 = getelementptr inbounds nuw i8, ptr %25, i64 16
  %34 = load ptr, ptr %33, align 8, !tbaa !29
  %35 = getelementptr inbounds nuw i8, ptr %32, i64 16
  %36 = load ptr, ptr %35, align 8, !tbaa !29
  %37 = load ptr, ptr %0, align 8, !tbaa !3
  %38 = getelementptr inbounds nuw i8, ptr %37, i64 312
  %39 = load ptr, ptr %38, align 8, !tbaa !62
  %40 = load i32, ptr %34, align 8, !tbaa !40
  %41 = zext i32 %40 to i64
  %42 = getelementptr inbounds nuw i32, ptr %39, i64 %41
  %43 = load i32, ptr %42, align 4, !tbaa !16
  %44 = load i32, ptr %36, align 8, !tbaa !40
  %45 = zext i32 %44 to i64
  %46 = getelementptr inbounds nuw i32, ptr %39, i64 %45
  %47 = load i32, ptr %46, align 4, !tbaa !16
  %48 = icmp slt i32 %43, %47
  %49 = icmp eq i32 %44, %40
  %50 = or i1 %48, %49
  br i1 %50, label %51, label %66

51:                                               ; preds = %22
  %52 = icmp eq i32 %40, %44
  br i1 %52, label %53, label %64

53:                                               ; preds = %51
  %54 = icmp eq ptr %21, %29
  br i1 %54, label %55, label %59

55:                                               ; preds = %53
  %56 = add nsw i32 %.05766, 1
  %57 = sext i32 %.05766 to i64
  %58 = getelementptr inbounds [1000 x ptr], ptr @dsdKernelFindCommonComponents.Common, i64 0, i64 %57
  store ptr %21, ptr %58, align 8, !tbaa !24
  br label %61

59:                                               ; preds = %53
  store ptr %21, ptr %4, align 8, !tbaa !24
  %60 = load ptr, ptr %28, align 8, !tbaa !24
  store ptr %60, ptr %5, align 8, !tbaa !24
  br label %61

61:                                               ; preds = %59, %55
  %.158 = phi i32 [ %56, %55 ], [ %.05766, %59 ]
  %62 = add nsw i32 %.05467, 1
  %63 = add nsw i32 %.068, 1
  br label %68

64:                                               ; preds = %51
  %65 = add nsw i32 %.05467, 1
  store ptr %21, ptr %4, align 8, !tbaa !24
  br label %68

66:                                               ; preds = %22
  %67 = add nsw i32 %.068, 1
  store ptr %29, ptr %5, align 8, !tbaa !24
  br label %68

68:                                               ; preds = %64, %66, %61
  %.2 = phi i32 [ %.158, %61 ], [ %.05766, %64 ], [ %.05766, %66 ]
  %.155 = phi i32 [ %62, %61 ], [ %65, %64 ], [ %.05467, %66 ]
  %.1 = phi i32 [ %63, %61 ], [ %.068, %64 ], [ %67, %66 ]
  %69 = icmp slt i32 %.155, %9
  br i1 %69, label %17, label %.critedge, !llvm.loop !76

70:                                               ; preds = %17
  store ptr %21, ptr %4, align 8, !tbaa !24
  br label %.critedge

.critedge:                                        ; preds = %68, %6, %70
  %.05765 = phi i32 [ %.05766, %70 ], [ 0, %6 ], [ %.2, %68 ]
  %.062 = phi i32 [ %.068, %70 ], [ 0, %6 ], [ %.1, %68 ]
  %71 = icmp slt i32 %.062, %13
  br i1 %71, label %72, label %78

72:                                               ; preds = %.critedge
  %73 = getelementptr inbounds nuw i8, ptr %2, i64 24
  %74 = load ptr, ptr %73, align 8, !tbaa !56
  %75 = sext i32 %.062 to i64
  %76 = getelementptr inbounds ptr, ptr %74, i64 %75
  %77 = load ptr, ptr %76, align 8, !tbaa !24
  store ptr %77, ptr %5, align 8, !tbaa !24
  br label %78

78:                                               ; preds = %72, %.critedge
  store ptr @dsdKernelFindCommonComponents.Common, ptr %3, align 8, !tbaa !63
  ret i32 %.05765
}